; ModuleID = '22/362.c'
source_filename = "22/362.c"
target datalayout = "e-m:e-p270:32:32-p271:32:32-p272:64:64-i64:64-f80:128-n8:16:32:64-S128"
target triple = "x86_64-pc-linux-gnu"

@.str = private unnamed_addr constant [4 x i8] c"%d\0A\00", align 1
@.str.1 = private unnamed_addr constant [4 x i8] c"No\0A\00", align 1

; Function Attrs: noinline nounwind uwtable
define dso_local void @main() #0 {
  %1 = alloca [1500 x i8], align 16
  %2 = alloca [300 x i32], align 16
  %3 = alloca i32, align 4
  %4 = alloca i32, align 4
  %5 = alloca i32, align 4
  %6 = alloca i32, align 4
  %7 = alloca i32, align 4
  %8 = getelementptr inbounds [1500 x i8], [1500 x i8]* %1, i64 0, i64 0
  %9 = call i32 (i8*, ...) bitcast (i32 (...)* @gets to i32 (i8*, ...)*)(i8* %8)
  store i32 0, i32* %5, align 4
  store i32 0, i32* %6, align 4
  br label %10

10:                                               ; preds = %59, %24, %0
  %11 = load i32, i32* %5, align 4
  %12 = sext i32 %11 to i64
  %13 = getelementptr inbounds [1500 x i8], [1500 x i8]* %1, i64 0, i64 %12
  %14 = load i8, i8* %13, align 1
  %15 = sext i8 %14 to i32
  %16 = icmp ne i32 %15, 0
  br i1 %16, label %17, label %64

17:                                               ; preds = %10
  %18 = load i32, i32* %5, align 4
  %19 = sext i32 %18 to i64
  %20 = getelementptr inbounds [1500 x i8], [1500 x i8]* %1, i64 0, i64 %19
  %21 = load i8, i8* %20, align 1
  %22 = sext i8 %21 to i32
  %23 = icmp eq i32 %22, 44
  br i1 %23, label %24, label %29

24:                                               ; preds = %17
  %25 = load i32, i32* %6, align 4
  %26 = add nsw i32 %25, 1
  store i32 %26, i32* %6, align 4
  %27 = load i32, i32* %5, align 4
  %28 = add nsw i32 %27, 1
  store i32 %28, i32* %5, align 4
  br label %10

29:                                               ; preds = %17
  store i32 0, i32* %7, align 4
  br label %30

30:                                               ; preds = %56, %29
  %31 = load i32, i32* %5, align 4
  %32 = sext i32 %31 to i64
  %33 = getelementptr inbounds [1500 x i8], [1500 x i8]* %1, i64 0, i64 %32
  %34 = load i8, i8* %33, align 1
  %35 = sext i8 %34 to i32
  %36 = icmp ne i32 %35, 44
  br i1 %36, label %37, label %44

37:                                               ; preds = %30
  %38 = load i32, i32* %5, align 4
  %39 = sext i32 %38 to i64
  %40 = getelementptr inbounds [1500 x i8], [1500 x i8]* %1, i64 0, i64 %39
  %41 = load i8, i8* %40, align 1
  %42 = sext i8 %41 to i32
  %43 = icmp ne i32 %42, 0
  br label %44

44:                                               ; preds = %37, %30
  %45 = phi i1 [ false, %30 ], [ %43, %37 ]
  br i1 %45, label %46, label %59

46:                                               ; preds = %44
  %47 = load i32, i32* %7, align 4
  %48 = mul nsw i32 %47, 10
  %49 = load i32, i32* %5, align 4
  %50 = sext i32 %49 to i64
  %51 = getelementptr inbounds [1500 x i8], [1500 x i8]* %1, i64 0, i64 %50
  %52 = load i8, i8* %51, align 1
  %53 = sext i8 %52 to i32
  %54 = add nsw i32 %48, %53
  %55 = sub nsw i32 %54, 48
  store i32 %55, i32* %7, align 4
  br label %56

56:                                               ; preds = %46
  %57 = load i32, i32* %5, align 4
  %58 = add nsw i32 %57, 1
  store i32 %58, i32* %5, align 4
  br label %30

59:                                               ; preds = %44
  %60 = load i32, i32* %7, align 4
  %61 = load i32, i32* %6, align 4
  %62 = sext i32 %61 to i64
  %63 = getelementptr inbounds [300 x i32], [300 x i32]* %2, i64 0, i64 %62
  store i32 %60, i32* %63, align 4
  br label %10

64:                                               ; preds = %10
  %65 = load i32, i32* %6, align 4
  %66 = add nsw i32 %65, 1
  %67 = sext i32 %66 to i64
  %68 = getelementptr inbounds [300 x i32], [300 x i32]* %2, i64 0, i64 %67
  store i32 -1, i32* %68, align 4
  store i32 -1, i32* %3, align 4
  store i32 -1, i32* %4, align 4
  store i32 0, i32* %5, align 4
  br label %69

69:                                               ; preds = %88, %64
  %70 = load i32, i32* %5, align 4
  %71 = sext i32 %70 to i64
  %72 = getelementptr inbounds [300 x i32], [300 x i32]* %2, i64 0, i64 %71
  %73 = load i32, i32* %72, align 4
  %74 = icmp ne i32 %73, -1
  br i1 %74, label %75, label %91

75:                                               ; preds = %69
  %76 = load i32, i32* %5, align 4
  %77 = sext i32 %76 to i64
  %78 = getelementptr inbounds [300 x i32], [300 x i32]* %2, i64 0, i64 %77
  %79 = load i32, i32* %78, align 4
  %80 = load i32, i32* %3, align 4
  %81 = icmp sgt i32 %79, %80
  br i1 %81, label %82, label %87

82:                                               ; preds = %75
  %83 = load i32, i32* %5, align 4
  %84 = sext i32 %83 to i64
  %85 = getelementptr inbounds [300 x i32], [300 x i32]* %2, i64 0, i64 %84
  %86 = load i32, i32* %85, align 4
  store i32 %86, i32* %3, align 4
  br label %87

87:                                               ; preds = %82, %75
  br label %88

88:                                               ; preds = %87
  %89 = load i32, i32* %5, align 4
  %90 = add nsw i32 %89, 1
  store i32 %90, i32* %5, align 4
  br label %69

91:                                               ; preds = %69
  store i32 0, i32* %5, align 4
  br label %92

92:                                               ; preds = %118, %91
  %93 = load i32, i32* %5, align 4
  %94 = sext i32 %93 to i64
  %95 = getelementptr inbounds [300 x i32], [300 x i32]* %2, i64 0, i64 %94
  %96 = load i32, i32* %95, align 4
  %97 = icmp ne i32 %96, -1
  br i1 %97, label %98, label %121

98:                                               ; preds = %92
  %99 = load i32, i32* %5, align 4
  %100 = sext i32 %99 to i64
  %101 = getelementptr inbounds [300 x i32], [300 x i32]* %2, i64 0, i64 %100
  %102 = load i32, i32* %101, align 4
  %103 = load i32, i32* %4, align 4
  %104 = icmp sgt i32 %102, %103
  br i1 %104, label %105, label %117

105:                                              ; preds = %98
  %106 = load i32, i32* %5, align 4
  %107 = sext i32 %106 to i64
  %108 = getelementptr inbounds [300 x i32], [300 x i32]* %2, i64 0, i64 %107
  %109 = load i32, i32* %108, align 4
  %110 = load i32, i32* %3, align 4
  %111 = icmp slt i32 %109, %110
  br i1 %111, label %112, label %117

112:                                              ; preds = %105
  %113 = load i32, i32* %5, align 4
  %114 = sext i32 %113 to i64
  %115 = getelementptr inbounds [300 x i32], [300 x i32]* %2, i64 0, i64 %114
  %116 = load i32, i32* %115, align 4
  store i32 %116, i32* %4, align 4
  br label %117

117:                                              ; preds = %112, %105, %98
  br label %118

118:                                              ; preds = %117
  %119 = load i32, i32* %5, align 4
  %120 = add nsw i32 %119, 1
  store i32 %120, i32* %5, align 4
  br label %92

121:                                              ; preds = %92
  %122 = load i32, i32* %4, align 4
  %123 = icmp sgt i32 %122, -1
  br i1 %123, label %124, label %127

124:                                              ; preds = %121
  %125 = load i32, i32* %4, align 4
  %126 = call i32 (i8*, ...) @printf(i8* getelementptr inbounds ([4 x i8], [4 x i8]* @.str, i64 0, i64 0), i32 %125)
  br label %129

127:                                              ; preds = %121
  %128 = call i32 (i8*, ...) @printf(i8* getelementptr inbounds ([4 x i8], [4 x i8]* @.str.1, i64 0, i64 0))
  br label %129

129:                                              ; preds = %127, %124
  ret void
}

declare dso_local i32 @gets(...) #1

declare dso_local i32 @printf(i8*, ...) #1


!llvm.module.flags = !{!0}
!llvm.ident = !{!1}

!0 = !{i32 1, !"wchar_size", i32 4}
!1 = !{!"clang version 10.0.0-4ubuntu1 "}
